target datalayout = "e-m:e-p270:32:32-p271:32:32-p272:64:64-i64:64-i128:128-f80:128-n8:16:32:64-S128"
target triple = "x86_64-pc-linux-gnu"

%struct.egg_encrypt = type { ptr, %union.anon }
%union.anon = type { ptr }
%struct.encrypt_header = type { i8 }
%struct.zip2_xor_keybase = type { [12 x i8], i32 }

@.str = private unnamed_addr constant [4 x i8] c"XOR\00", align 1
@.str.1 = private unnamed_addr constant [8 x i8] c"AES 128\00", align 1
@.str.2 = private unnamed_addr constant [8 x i8] c"LEA 128\00", align 1
@.str.3 = private unnamed_addr constant [8 x i8] c"AES 256\00", align 1
@.str.4 = private unnamed_addr constant [8 x i8] c"LEA 256\00", align 1
@.str.5 = private unnamed_addr constant [17 x i8] c"<unknown method>\00", align 1
@.str.130 = private unnamed_addr constant [41 x i8] c"egg_parse_encrypt_header: Invalid args.\0A\00", align 1
@.str.131 = private unnamed_addr constant [46 x i8] c"egg_parse_encrypt_header: Encrypted archive.\0A\00", align 1
@.str.132 = private unnamed_addr constant [65 x i8] c"egg_parse_encrypt_header: size of encrypt extra_field data: %zu\0A\00", align 1
@.str.133 = private unnamed_addr constant [69 x i8] c"egg_parse_encrypt_header: Encrypt header size too small (%zu < %zu)\0A\00", align 1
@.str.134 = private unnamed_addr constant [70 x i8] c"egg_parse_encrypt_header: Failed to allocate memory for egg_encrypt.\0A\00", align 1
@.str.135 = private unnamed_addr constant [69 x i8] c"egg_parse_encrypt_header: encrypt_header->encrypt_method: %02x (%s)\0A\00", align 1
@.str.136 = private unnamed_addr constant [95 x i8] c"egg_parse_encrypt_header: Encrypt header size for XOR is different than expected (%zu != %zu)\0A\00", align 1
@.str.137 = private unnamed_addr constant [64 x i8] c"egg_parse_encrypt_header: encrypt_header->crc32:          %08x\0A\00", align 1
@.str.138 = private unnamed_addr constant [102 x i8] c"egg_parse_encrypt_header: Encrypt header size for AES/LEA128 is different than expected (%zu != %zu)\0A\00", align 1
@.str.139 = private unnamed_addr constant [102 x i8] c"egg_parse_encrypt_header: Encrypt header size for AES/LEA256 is different than expected (%zu != %zu)\0A\00", align 1
@.str.140 = private unnamed_addr constant [54 x i8] c"egg_parse_encrypt_header: Unknown encrypt method: %d\0A\00", align 1

; Function Attrs: nounwind uwtable
define internal void @egg_free_encrypt(ptr noundef %0) #0 {
  %2 = alloca ptr, align 8
  store ptr %0, ptr %2, align 8
  %3 = load ptr, ptr %2, align 8
  call void @free(ptr noundef %3) #7
  ret void
}

; Function Attrs: nounwind uwtable
define ptr @getEncryptName(i8 noundef zeroext %0) #0 {
  %2 = alloca i8, align 1
  %3 = alloca ptr, align 8
  store i8 %0, ptr %2, align 1
  store ptr null, ptr %3, align 8
  %4 = load i8, ptr %2, align 1
  %5 = zext i8 %4 to i32
  switch i32 %5, label %11 [
    i32 0, label %6
    i32 1, label %7
    i32 16, label %8
    i32 2, label %9
    i32 32, label %10
  ]

6:                                                ; preds = %1
  store ptr @.str, ptr %3, align 8
  br label %12

7:                                                ; preds = %1
  store ptr @.str.1, ptr %3, align 8
  br label %12

8:                                                ; preds = %1
  store ptr @.str.2, ptr %3, align 8
  br label %12

9:                                                ; preds = %1
  store ptr @.str.3, ptr %3, align 8
  br label %12

10:                                               ; preds = %1
  store ptr @.str.4, ptr %3, align 8
  br label %12

11:                                               ; preds = %1
  store ptr @.str.5, ptr %3, align 8
  br label %12

12:                                               ; preds = %11, %10, %9, %8, %7, %6
  %13 = load ptr, ptr %3, align 8
  ret ptr %13
}

; Function Attrs: nounwind uwtable
define internal i32 @egg_parse_encrypt_header(ptr noundef %0, i64 noundef %1, ptr noundef %2) #0 {
  %4 = alloca ptr, align 8
  %5 = alloca i64, align 8
  %6 = alloca ptr, align 8
  %7 = alloca i32, align 4
  %8 = alloca ptr, align 8
  store ptr %0, ptr %4, align 8
  store i64 %1, ptr %5, align 8
  store ptr %2, ptr %6, align 8
  store i32 27, ptr %7, align 4
  store ptr null, ptr %8, align 8
  %9 = load ptr, ptr %4, align 8
  %10 = icmp ne ptr %9, null
  br i1 %10, label %11, label %17

11:                                               ; preds = %3
  %12 = load i64, ptr %5, align 8
  %13 = icmp eq i64 0, %12
  br i1 %13, label %17, label %14

14:                                               ; preds = %11
  %15 = load ptr, ptr %6, align 8
  %16 = icmp ne ptr %15, null
  br i1 %16, label %18, label %17

17:                                               ; preds = %14, %11, %3
  call void (ptr, ...) @cli_errmsg(ptr noundef @.str.130)
  store i32 3, ptr %7, align 4
  br label %115

18:                                               ; preds = %14
  %19 = load ptr, ptr %6, align 8
  store ptr null, ptr %19, align 8
  call void (ptr, ...) @cli_dbgmsg(ptr noundef @.str.131)
  %20 = load i64, ptr %5, align 8
  call void (ptr, ...) @cli_dbgmsg(ptr noundef @.str.132, i64 noundef %20)
  %21 = load i64, ptr %5, align 8
  %22 = icmp ult i64 %21, 1
  br i1 %22, label %23, label %25

23:                                               ; preds = %18
  %24 = load i64, ptr %5, align 8
  call void (ptr, ...) @cli_warnmsg(ptr noundef @.str.133, i64 noundef %24, i64 noundef 1)
  br label %115

25:                                               ; preds = %18
  %26 = call noalias ptr @calloc(i64 noundef 1, i64 noundef 16) #6
  store ptr %26, ptr %8, align 8
  %27 = load ptr, ptr %8, align 8
  %28 = icmp eq ptr null, %27
  br i1 %28, label %29, label %30

29:                                               ; preds = %25
  call void (ptr, ...) @cli_errmsg(ptr noundef @.str.134)
  store i32 20, ptr %7, align 4
  br label %115

30:                                               ; preds = %25
  %31 = load ptr, ptr %4, align 8
  %32 = load ptr, ptr %8, align 8
  %33 = getelementptr inbounds %struct.egg_encrypt, ptr %32, i32 0, i32 0
  store ptr %31, ptr %33, align 8
  %34 = load ptr, ptr %8, align 8
  %35 = getelementptr inbounds %struct.egg_encrypt, ptr %34, i32 0, i32 0
  %36 = load ptr, ptr %35, align 8
  %37 = getelementptr inbounds %struct.encrypt_header, ptr %36, i32 0, i32 0
  %38 = load i8, ptr %37, align 1
  %39 = zext i8 %38 to i32
  %40 = load ptr, ptr %8, align 8
  %41 = getelementptr inbounds %struct.egg_encrypt, ptr %40, i32 0, i32 0
  %42 = load ptr, ptr %41, align 8
  %43 = getelementptr inbounds %struct.encrypt_header, ptr %42, i32 0, i32 0
  %44 = load i8, ptr %43, align 1
  %45 = call ptr @getEncryptName(i8 noundef zeroext %44)
  call void (ptr, ...) @cli_dbgmsg(ptr noundef @.str.135, i32 noundef %39, ptr noundef %45)
  %46 = load ptr, ptr %4, align 8
  %47 = getelementptr inbounds i8, ptr %46, i64 1
  store ptr %47, ptr %4, align 8
  %48 = load i64, ptr %5, align 8
  %49 = sub i64 %48, 1
  store i64 %49, ptr %5, align 8
  %50 = load ptr, ptr %8, align 8
  %51 = getelementptr inbounds %struct.egg_encrypt, ptr %50, i32 0, i32 0
  %52 = load ptr, ptr %51, align 8
  %53 = getelementptr inbounds %struct.encrypt_header, ptr %52, i32 0, i32 0
  %54 = load i8, ptr %53, align 1
  %55 = zext i8 %54 to i32
  %56 = icmp eq i32 0, %55
  br i1 %56, label %57, label %71

57:                                               ; preds = %30
  %58 = load i64, ptr %5, align 8
  %59 = icmp ne i64 %58, 16
  br i1 %59, label %60, label %62

60:                                               ; preds = %57
  %61 = load i64, ptr %5, align 8
  call void (ptr, ...) @cli_warnmsg(ptr noundef @.str.136, i64 noundef %61, i64 noundef 16)
  br label %115

62:                                               ; preds = %57
  %63 = load ptr, ptr %4, align 8
  %64 = load ptr, ptr %8, align 8
  %65 = getelementptr inbounds %struct.egg_encrypt, ptr %64, i32 0, i32 1
  store ptr %63, ptr %65, align 8
  %66 = load ptr, ptr %8, align 8
  %67 = getelementptr inbounds %struct.egg_encrypt, ptr %66, i32 0, i32 1
  %68 = load ptr, ptr %67, align 8
  %69 = getelementptr inbounds %struct.zip2_xor_keybase, ptr %68, i32 0, i32 1
  %70 = load i32, ptr %69, align 1
  call void (ptr, ...) @cli_dbgmsg(ptr noundef @.str.137, i32 noundef %70)
  br label %112

71:                                               ; preds = %30
  %72 = load ptr, ptr %8, align 8
  %73 = getelementptr inbounds %struct.egg_encrypt, ptr %72, i32 0, i32 0
  %74 = load ptr, ptr %73, align 8
  %75 = getelementptr inbounds %struct.encrypt_header, ptr %74, i32 0, i32 0
  %76 = load i8, ptr %75, align 1
  %77 = zext i8 %76 to i32
  switch i32 %77, label %104 [
    i32 1, label %78
    i32 16, label %78
    i32 2, label %91
    i32 32, label %91
  ]

78:                                               ; preds = %71, %71
  %79 = load i64, ptr %5, align 8
  %80 = icmp ult i64 %79, 20
  br i1 %80, label %81, label %83

81:                                               ; preds = %78
  %82 = load i64, ptr %5, align 8
  call void (ptr, ...) @cli_warnmsg(ptr noundef @.str.138, i64 noundef %82, i64 noundef 20)
  br label %115

83:                                               ; preds = %78
  %84 = load ptr, ptr %4, align 8
  %85 = load ptr, ptr %8, align 8
  %86 = getelementptr inbounds %struct.egg_encrypt, ptr %85, i32 0, i32 1
  store ptr %84, ptr %86, align 8
  %87 = load ptr, ptr %4, align 8
  %88 = getelementptr inbounds i8, ptr %87, i64 20
  store ptr %88, ptr %4, align 8
  %89 = load i64, ptr %5, align 8
  %90 = sub i64 %89, 20
  store i64 %90, ptr %5, align 8
  br label %111

91:                                               ; preds = %71, %71
  %92 = load i64, ptr %5, align 8
  %93 = icmp ult i64 %92, 28
  br i1 %93, label %94, label %96

94:                                               ; preds = %91
  %95 = load i64, ptr %5, align 8
  call void (ptr, ...) @cli_warnmsg(ptr noundef @.str.139, i64 noundef %95, i64 noundef 28)
  br label %115

96:                                               ; preds = %91
  %97 = load ptr, ptr %4, align 8
  %98 = load ptr, ptr %8, align 8
  %99 = getelementptr inbounds %struct.egg_encrypt, ptr %98, i32 0, i32 1
  store ptr %97, ptr %99, align 8
  %100 = load ptr, ptr %4, align 8
  %101 = getelementptr inbounds i8, ptr %100, i64 28
  store ptr %101, ptr %4, align 8
  %102 = load i64, ptr %5, align 8
  %103 = sub i64 %102, 28
  store i64 %103, ptr %5, align 8
  br label %111

104:                                              ; preds = %71
  %105 = load ptr, ptr %8, align 8
  %106 = getelementptr inbounds %struct.egg_encrypt, ptr %105, i32 0, i32 0
  %107 = load ptr, ptr %106, align 8
  %108 = getelementptr inbounds %struct.encrypt_header, ptr %107, i32 0, i32 0
  %109 = load i8, ptr %108, align 1
  %110 = zext i8 %109 to i32
  call void (ptr, ...) @cli_warnmsg(ptr noundef @.str.140, i32 noundef %110)
  br label %115

111:                                              ; preds = %96, %83
  br label %112

112:                                              ; preds = %111, %62
  %113 = load ptr, ptr %8, align 8
  %114 = load ptr, ptr %6, align 8
  store ptr %113, ptr %114, align 8
  store ptr null, ptr %8, align 8
  store i32 0, ptr %7, align 4
  br label %115

115:                                              ; preds = %112, %104, %94, %81, %60, %29, %23, %17
  %116 = load ptr, ptr %8, align 8
  %117 = icmp ne ptr null, %116
  br i1 %117, label %118, label %120

118:                                              ; preds = %115
  %119 = load ptr, ptr %8, align 8
  call void @egg_free_encrypt(ptr noundef %119)
  br label %120

120:                                              ; preds = %118, %115
  %121 = load i32, ptr %7, align 4
  ret i32 %121
}