; Function Attrs: nounwind uwtable
define internal fastcc noundef i32 @egg_parse_encrypt_header(ptr noundef %0, i64 noundef %1, ptr noundef writeonly %2) unnamed_addr #1 {
  %4 = icmp ne i64 %1, 0
  %5 = icmp ne ptr %2, null
  %or.cond3 = and i1 %4, %5
  br i1 %or.cond3, label %7, label %6

6:                                                ; preds = %3
  tail call void (ptr, ...) @cli_errmsg(ptr noundef nonnull @.str.130) #11
  br label %42

7:                                                ; preds = %3
  store ptr null, ptr %2, align 8
  tail call void (ptr, ...) @cli_dbgmsg(ptr noundef nonnull @.str.131) #11
  tail call void (ptr, ...) @cli_dbgmsg(ptr noundef nonnull @.str.132, i64 noundef %1) #11
  %8 = tail call noalias dereferenceable_or_null(16) ptr @calloc(i64 noundef 1, i64 noundef 16) #12
  %9 = icmp eq ptr %8, null
  br i1 %9, label %10, label %11

10:                                               ; preds = %7
  tail call void (ptr, ...) @cli_errmsg(ptr noundef nonnull @.str.134) #11
  br label %42

11:                                               ; preds = %7
  store ptr %0, ptr %8, align 8
  %12 = load i8, ptr %0, align 1
  %13 = zext i8 %12 to i32
  switch i8 %12, label %18 [
    i8 0, label %getEncryptName.exit
    i8 1, label %14
    i8 16, label %15
    i8 2, label %16
    i8 32, label %17
  ]

14:                                               ; preds = %11
  br label %getEncryptName.exit

15:                                               ; preds = %11
  br label %getEncryptName.exit

16:                                               ; preds = %11
  br label %getEncryptName.exit

17:                                               ; preds = %11
  br label %getEncryptName.exit

18:                                               ; preds = %11
  br label %getEncryptName.exit

getEncryptName.exit:                              ; preds = %11, %14, %15, %16, %17, %18
  %.0.i = phi ptr [ @.str.5, %18 ], [ @.str.4, %17 ], [ @.str.3, %16 ], [ @.str.2, %15 ], [ @.str.1, %14 ], [ @.str, %11 ]
  tail call void (ptr, ...) @cli_dbgmsg(ptr noundef nonnull @.str.135, i32 noundef %13, ptr noundef nonnull %.0.i) #11
  %19 = getelementptr inbounds i8, ptr %0, i64 1
  %20 = add nsw i64 %1, -1
  %21 = load i8, ptr %0, align 1
  switch i8 %21, label %38 [
    i8 0, label %22
    i8 1, label %28
    i8 16, label %28
    i8 2, label %33
    i8 32, label %33
  ]

22:                                               ; preds = %getEncryptName.exit
  %.not = icmp eq i64 %20, 16
  br i1 %.not, label %24, label %23

23:                                               ; preds = %22
  tail call void (ptr, ...) @cli_warnmsg(ptr noundef nonnull @.str.136, i64 noundef %20, i64 noundef 16) #11
  br label %41

24:                                               ; preds = %22
  %25 = getelementptr inbounds i8, ptr %8, i64 8
  store ptr %19, ptr %25, align 8
  %26 = getelementptr inbounds i8, ptr %0, i64 13
  %27 = load i32, ptr %26, align 1
  tail call void (ptr, ...) @cli_dbgmsg(ptr noundef nonnull @.str.137, i32 noundef %27) #11
  br label %40

28:                                               ; preds = %getEncryptName.exit, %getEncryptName.exit
  %29 = icmp ult i64 %1, 21
  br i1 %29, label %30, label %31

30:                                               ; preds = %28
  tail call void (ptr, ...) @cli_warnmsg(ptr noundef nonnull @.str.138, i64 noundef %20, i64 noundef 20) #11
  br label %41

31:                                               ; preds = %28
  %32 = getelementptr inbounds i8, ptr %8, i64 8
  store ptr %19, ptr %32, align 8
  br label %40

33:                                               ; preds = %getEncryptName.exit, %getEncryptName.exit
  %34 = icmp ult i64 %1, 29
  br i1 %34, label %35, label %36

35:                                               ; preds = %33
  tail call void (ptr, ...) @cli_warnmsg(ptr noundef nonnull @.str.139, i64 noundef %20, i64 noundef 28) #11
  br label %41

36:                                               ; preds = %33
  %37 = getelementptr inbounds i8, ptr %8, i64 8
  store ptr %19, ptr %37, align 8
  br label %40

38:                                               ; preds = %getEncryptName.exit
  %39 = zext i8 %21 to i32
  tail call void (ptr, ...) @cli_warnmsg(ptr noundef nonnull @.str.140, i32 noundef %39) #11
  br label %41

40:                                               ; preds = %31, %36, %24
  store ptr %8, ptr %2, align 8
  br label %42

41:                                               ; preds = %23, %38, %35, %30
  tail call void @free(ptr noundef nonnull %8) #11
  br label %42

42:                                               ; preds = %6, %10, %40, %41
  %.04152 = phi i32 [ 27, %41 ], [ 20, %10 ], [ 0, %40 ], [ 3, %6 ]
  ret i32 %.04152
}